; Function Attrs: mustprogress nounwind uwtable
define hidden noundef ptr @_ZNK14ObjectConstant10exact_typeEv(ptr noundef nonnull align 8 dereferenceable(24) %0) unnamed_addr #0 align 2 {
  %2 = load ptr, ptr %0, align 8
  %3 = getelementptr inbounds i8, ptr %2, i64 224
  %4 = load ptr, ptr %3, align 8
  %5 = tail call noundef ptr %4(ptr noundef nonnull align 8 dereferenceable(24) %0) #6
  %.not = icmp eq ptr %5, null
  br i1 %.not, label %13, label %6

6:                                                ; preds = %1
  %7 = load ptr, ptr %5, align 8
  %8 = getelementptr inbounds i8, ptr %7, i64 40
  %9 = load ptr, ptr %8, align 8
  %10 = tail call noundef zeroext i1 %9(ptr noundef nonnull align 8 dereferenceable(40) %5) #6
  br i1 %10, label %13, label %11

11:                                               ; preds = %6
  %12 = tail call noundef ptr @_ZN8ciObject5klassEv(ptr noundef nonnull align 8 dereferenceable(40) %5) #6
  br label %13

13:                                               ; preds = %1, %6, %11
  %14 = phi ptr [ %12, %11 ], [ null, %6 ], [ null, %1 ]
  ret ptr %14
}